target datalayout = "e-m:e-p270:32:32-p271:32:32-p272:64:64-i64:64-i128:128-f80:128-n8:16:32:64-S128"
target triple = "x86_64-pc-linux-gnu"

%struct.TokenAuxData = type { %union.YYSTYPE, i32, i32 }
%union.YYSTYPE = type { %struct.PLwdatum }
%struct.PLwdatum = type { ptr, ptr, i8, ptr }
%struct.yyguts_t = type { ptr }
%struct.plpgsql_yy_extra_type = type { %struct.core_yy_extra_type, ptr, i32, i32, i32, [4 x i32], [4 x %struct.TokenAuxData], ptr, ptr, i32 }
%struct.core_yy_extra_type = type { ptr, i64, ptr, ptr, i32, i8, i8, ptr, i32, i32, i32, i32, ptr, i32, i32, i8, i8 }

@.str.4 = private unnamed_addr constant [3 x i8] c"<<\00", align 1
@.str.5 = private unnamed_addr constant [3 x i8] c">>\00", align 1
@.str.6 = private unnamed_addr constant [2 x i8] c"#\00", align 1

; Function Attrs: nounwind uwtable
define internal i32 @internal_yylex(ptr noundef %0, ptr noundef %1) #0 {
  %3 = alloca ptr, align 8
  %4 = alloca ptr, align 8
  %5 = alloca i32, align 4
  %6 = alloca ptr, align 8
  store ptr %0, ptr %3, align 8
  store ptr %1, ptr %4, align 8
  call void @llvm.lifetime.start.p0(i64 4, ptr %5) #8
  call void @llvm.lifetime.start.p0(i64 8, ptr %6) #8
  %7 = load ptr, ptr %4, align 8
  %8 = getelementptr inbounds nuw %struct.yyguts_t, ptr %7, i32 0, i32 0
  %9 = load ptr, ptr %8, align 8
  %10 = getelementptr inbounds nuw %struct.plpgsql_yy_extra_type, ptr %9, i32 0, i32 4
  %11 = load i32, ptr %10, align 8
  %12 = icmp sgt i32 %11, 0
  br i1 %12, label %13, label %44

13:                                               ; preds = %2
  %14 = load ptr, ptr %4, align 8
  %15 = getelementptr inbounds nuw %struct.yyguts_t, ptr %14, i32 0, i32 0
  %16 = load ptr, ptr %15, align 8
  %17 = getelementptr inbounds nuw %struct.plpgsql_yy_extra_type, ptr %16, i32 0, i32 4
  %18 = load i32, ptr %17, align 8
  %19 = add i32 %18, -1
  store i32 %19, ptr %17, align 8
  %20 = load ptr, ptr %4, align 8
  %21 = getelementptr inbounds nuw %struct.yyguts_t, ptr %20, i32 0, i32 0
  %22 = load ptr, ptr %21, align 8
  %23 = getelementptr inbounds nuw %struct.plpgsql_yy_extra_type, ptr %22, i32 0, i32 5
  %24 = load ptr, ptr %4, align 8
  %25 = getelementptr inbounds nuw %struct.yyguts_t, ptr %24, i32 0, i32 0
  %26 = load ptr, ptr %25, align 8
  %27 = getelementptr inbounds nuw %struct.plpgsql_yy_extra_type, ptr %26, i32 0, i32 4
  %28 = load i32, ptr %27, align 8
  %29 = sext i32 %28 to i64
  %30 = getelementptr inbounds [4 x i32], ptr %23, i64 0, i64 %29
  %31 = load i32, ptr %30, align 4
  store i32 %31, ptr %5, align 4
  %32 = load ptr, ptr %3, align 8
  %33 = load ptr, ptr %4, align 8
  %34 = getelementptr inbounds nuw %struct.yyguts_t, ptr %33, i32 0, i32 0
  %35 = load ptr, ptr %34, align 8
  %36 = getelementptr inbounds nuw %struct.plpgsql_yy_extra_type, ptr %35, i32 0, i32 6
  %37 = load ptr, ptr %4, align 8
  %38 = getelementptr inbounds nuw %struct.yyguts_t, ptr %37, i32 0, i32 0
  %39 = load ptr, ptr %38, align 8
  %40 = getelementptr inbounds nuw %struct.plpgsql_yy_extra_type, ptr %39, i32 0, i32 4
  %41 = load i32, ptr %40, align 8
  %42 = sext i32 %41 to i64
  %43 = getelementptr inbounds [4 x %struct.TokenAuxData], ptr %36, i64 0, i64 %42
  call void @llvm.memcpy.p0.p0.i64(ptr align 8 %32, ptr align 8 %43, i64 40, i1 false)
  br label %103

44:                                               ; preds = %2
  %45 = load ptr, ptr %3, align 8
  %46 = getelementptr inbounds nuw %struct.TokenAuxData, ptr %45, i32 0, i32 0
  %47 = load ptr, ptr %3, align 8
  %48 = getelementptr inbounds nuw %struct.TokenAuxData, ptr %47, i32 0, i32 1
  %49 = load ptr, ptr %4, align 8
  %50 = call i32 @core_yylex(ptr noundef %46, ptr noundef %48, ptr noundef %49)
  store i32 %50, ptr %5, align 4
  %51 = load ptr, ptr %4, align 8
  %52 = getelementptr inbounds nuw %struct.yyguts_t, ptr %51, i32 0, i32 0
  %53 = load ptr, ptr %52, align 8
  %54 = getelementptr inbounds nuw %struct.plpgsql_yy_extra_type, ptr %53, i32 0, i32 0
  %55 = getelementptr inbounds nuw %struct.core_yy_extra_type, ptr %54, i32 0, i32 0
  %56 = load ptr, ptr %55, align 8
  %57 = load ptr, ptr %3, align 8
  %58 = getelementptr inbounds nuw %struct.TokenAuxData, ptr %57, i32 0, i32 1
  %59 = load i32, ptr %58, align 8
  %60 = sext i32 %59 to i64
  %61 = getelementptr inbounds i8, ptr %56, i64 %60
  store ptr %61, ptr %6, align 8
  %62 = load ptr, ptr %6, align 8
  %63 = call i64 @strlen(ptr noundef %62) #9
  %64 = trunc i64 %63 to i32
  %65 = load ptr, ptr %3, align 8
  %66 = getelementptr inbounds nuw %struct.TokenAuxData, ptr %65, i32 0, i32 2
  store i32 %64, ptr %66, align 4
  %67 = load i32, ptr %5, align 4
  %68 = icmp eq i32 %67, 265
  br i1 %68, label %69, label %93

69:                                               ; preds = %44
  %70 = load ptr, ptr %3, align 8
  %71 = getelementptr inbounds nuw %struct.TokenAuxData, ptr %70, i32 0, i32 0
  %72 = load ptr, ptr %71, align 8
  %73 = call i32 @strcmp(ptr noundef %72, ptr noundef @.str.4) #9
  %74 = icmp eq i32 %73, 0
  br i1 %74, label %75, label %76

75:                                               ; preds = %69
  store i32 278, ptr %5, align 4
  br label %92

76:                                               ; preds = %69
  %77 = load ptr, ptr %3, align 8
  %78 = getelementptr inbounds nuw %struct.TokenAuxData, ptr %77, i32 0, i32 0
  %79 = load ptr, ptr %78, align 8
  %80 = call i32 @strcmp(ptr noundef %79, ptr noundef @.str.5) #9
  %81 = icmp eq i32 %80, 0
  br i1 %81, label %82, label %83

82:                                               ; preds = %76
  store i32 279, ptr %5, align 4
  br label %91

83:                                               ; preds = %76
  %84 = load ptr, ptr %3, align 8
  %85 = getelementptr inbounds nuw %struct.TokenAuxData, ptr %84, i32 0, i32 0
  %86 = load ptr, ptr %85, align 8
  %87 = call i32 @strcmp(ptr noundef %86, ptr noundef @.str.6) #9
  %88 = icmp eq i32 %87, 0
  br i1 %88, label %89, label %90

89:                                               ; preds = %83
  store i32 35, ptr %5, align 4
  br label %90

90:                                               ; preds = %89, %83
  br label %91

91:                                               ; preds = %90, %82
  br label %92

92:                                               ; preds = %91, %75
  br label %102

93:                                               ; preds = %44
  %94 = load i32, ptr %5, align 4
  %95 = icmp eq i32 %94, 267
  br i1 %95, label %96, label %101

96:                                               ; preds = %93
  %97 = load ptr, ptr %6, align 8
  %98 = call ptr @pstrdup(ptr noundef %97)
  %99 = load ptr, ptr %3, align 8
  %100 = getelementptr inbounds nuw %struct.TokenAuxData, ptr %99, i32 0, i32 0
  store ptr %98, ptr %100, align 8
  br label %101

101:                                              ; preds = %96, %93
  br label %102

102:                                              ; preds = %101, %92
  br label %103

103:                                              ; preds = %102, %13
  %104 = load i32, ptr %5, align 4
  call void @llvm.lifetime.end.p0(i64 8, ptr %6) #8
  call void @llvm.lifetime.end.p0(i64 4, ptr %5) #8
  ret i32 %104
}