; Function Attrs: nounwind uwtable
define internal fastcc i32 @internal_yylex(ptr noundef nonnull %0, ptr noundef %1) unnamed_addr #0 {
  %3 = load ptr, ptr %1, align 8
  %4 = getelementptr inbounds nuw i8, ptr %3, i64 104
  %5 = load i32, ptr %4, align 8
  %6 = icmp sgt i32 %5, 0
  br i1 %6, label %7, label %18

7:                                                ; preds = %2
  %8 = add nsw i32 %5, -1
  store i32 %8, ptr %4, align 8
  %9 = load ptr, ptr %1, align 8
  %10 = getelementptr inbounds nuw i8, ptr %9, i64 108
  %11 = getelementptr inbounds nuw i8, ptr %9, i64 104
  %12 = load i32, ptr %11, align 8
  %13 = sext i32 %12 to i64
  %14 = getelementptr inbounds [4 x i32], ptr %10, i64 0, i64 %13
  %15 = load i32, ptr %14, align 4
  %16 = getelementptr inbounds nuw i8, ptr %9, i64 128
  %17 = getelementptr inbounds [4 x %struct.TokenAuxData], ptr %16, i64 0, i64 %13
  tail call void @llvm.memcpy.p0.p0.i64(ptr noundef nonnull align 8 dereferenceable(40) %0, ptr noundef nonnull align 8 dereferenceable(40) %17, i64 40, i1 false)
  br label %.tail28

18:                                               ; preds = %2
  %19 = getelementptr inbounds nuw i8, ptr %0, i64 32
  %20 = tail call i32 @core_yylex(ptr noundef nonnull %0, ptr noundef nonnull %19, ptr noundef nonnull %1) #12
  %21 = load ptr, ptr %1, align 8
  %22 = load ptr, ptr %21, align 8
  %23 = load i32, ptr %19, align 8
  %24 = sext i32 %23 to i64
  %25 = getelementptr inbounds i8, ptr %22, i64 %24
  %26 = tail call i64 @strlen(ptr noundef nonnull dereferenceable(1) %25) #14
  %27 = trunc i64 %26 to i32
  %28 = getelementptr inbounds nuw i8, ptr %0, i64 36
  store i32 %27, ptr %28, align 4
  switch i32 %20, label %.tail28 [
    i32 265, label %sub_0
    i32 267, label %45
  ]

sub_0:                                            ; preds = %18
  %29 = load ptr, ptr %0, align 8
  %30 = load i8, ptr %29, align 1
  switch i8 %30, label %.tail28 [
    i8 60, label %sub_1
    i8 62, label %sub_125
    i8 35, label %sub_130
  ]

sub_1:                                            ; preds = %sub_0
  %31 = getelementptr inbounds nuw i8, ptr %29, i64 1
  %32 = load i8, ptr %31, align 1
  %.not32 = icmp eq i8 %32, 60
  br i1 %.not32, label %.tail, label %sub_029.thread40

.tail:                                            ; preds = %sub_1
  %33 = getelementptr inbounds nuw i8, ptr %29, i64 2
  %34 = load i8, ptr %33, align 1
  %35 = icmp eq i8 %34, 0
  br i1 %35, label %.tail28, label %sub_029.thread40

sub_125:                                          ; preds = %sub_0
  %36 = getelementptr inbounds nuw i8, ptr %29, i64 1
  %37 = load i8, ptr %36, align 1
  %.not34 = icmp eq i8 %37, 62
  br i1 %.not34, label %.tail23, label %sub_029.thread40

.tail23:                                          ; preds = %sub_125
  %38 = getelementptr inbounds nuw i8, ptr %29, i64 2
  %39 = load i8, ptr %38, align 1
  %40 = icmp eq i8 %39, 0
  %spec.select = select i1 %40, i32 279, i32 265
  br label %.tail28

sub_029.thread40:                                 ; preds = %sub_125, %sub_1, %.tail
  br label %.tail28

sub_130:                                          ; preds = %sub_0
  %41 = getelementptr inbounds nuw i8, ptr %29, i64 1
  %42 = load i8, ptr %41, align 1
  %43 = icmp eq i8 %42, 0
  %44 = select i1 %43, i32 35, i32 265
  br label %.tail28

45:                                               ; preds = %18
  %46 = tail call ptr @pstrdup(ptr noundef nonnull %25) #12
  store ptr %46, ptr %0, align 8
  br label %.tail28

.tail28:                                          ; preds = %.tail23, %sub_0, %sub_130, %sub_029.thread40, %18, %.tail, %45, %7
  %.0 = phi i32 [ %15, %7 ], [ 267, %45 ], [ 278, %.tail ], [ %20, %18 ], [ %44, %sub_130 ], [ 265, %sub_029.thread40 ], [ %spec.select, %.tail23 ], [ 265, %sub_0 ]
  ret i32 %.0
}